; Function Attrs: mustprogress uwtable
define noundef i64 @_ZN7rocksdb9lru_cache13LRUCacheShard15TEST_GetLRUSizeEv(ptr noundef nonnull align 64 dereferenceable(256) %this) local_unnamed_addr #0 align 2 personality ptr @__gxx_personality_v0 {
entry:
  %mutex_ = getelementptr inbounds i8, ptr %this, i64 208
  tail call void @_ZN7rocksdb4port5Mutex4LockEv(ptr noundef nonnull align 8 dereferenceable(40) %mutex_)
  %lru_ = getelementptr inbounds i8, ptr %this, i64 72
  %next = getelementptr inbounds i8, ptr %this, i64 96
  %lru_handle.03 = load ptr, ptr %next, align 32
  %cmp.not4 = icmp eq ptr %lru_handle.03, %lru_
  br i1 %cmp.not4, label %while.end, label %while.body

while.body:                                       ; preds = %entry, %while.body
  %lru_handle.06 = phi ptr [ %lru_handle.0, %while.body ], [ %lru_handle.03, %entry ]
  %lru_size.05 = phi i64 [ %inc, %while.body ], [ 0, %entry ]
  %inc = add i64 %lru_size.05, 1
  %next3 = getelementptr inbounds i8, ptr %lru_handle.06, i64 24
  %lru_handle.0 = load ptr, ptr %next3, align 8
  %cmp.not = icmp eq ptr %lru_handle.0, %lru_
  br i1 %cmp.not, label %while.end, label %while.body, !llvm.loop !18

while.end:                                        ; preds = %while.body, %entry
  %lru_size.0.lcssa = phi i64 [ 0, %entry ], [ %inc, %while.body ]
  invoke void @_ZN7rocksdb4port5Mutex6UnlockEv(ptr noundef nonnull align 8 dereferenceable(40) %mutex_)
          to label %_ZNSt10lock_guardIN7rocksdb4port5MutexEED2Ev.exit unwind label %terminate.lpad.i

terminate.lpad.i:                                 ; preds = %while.end
  %0 = landingpad { ptr, i32 }
          catch ptr null
  %1 = extractvalue { ptr, i32 } %0, 0
  tail call void @__clang_call_terminate(ptr %1) #27
  unreachable

_ZNSt10lock_guardIN7rocksdb4port5MutexEED2Ev.exit: ; preds = %while.end
  ret i64 %lru_size.0.lcssa
}